target datalayout = "e-m:e-p270:32:32-p271:32:32-p272:64:64-i64:64-i128:128-f80:128-n8:16:32:64-S128"
target triple = "x86_64-pc-linux-gnu"

%struct.kmac_data_st = type { ptr, ptr, %struct.PROV_DIGEST, i64, i64, i64, i32, [672 x i8], [516 x i8] }
%struct.PROV_DIGEST = type { ptr, ptr, ptr }

@.str.2 = private unnamed_addr constant [54 x i8] c"../openssl/providers/implementations/macs/kmac_prov.c\00", align 1

; Function Attrs: nounwind uwtable
define internal void @kmac_free(ptr noundef %0) #0 {
  %2 = alloca ptr, align 8
  %3 = alloca ptr, align 8
  store ptr %0, ptr %2, align 8, !tbaa !3
  call void @llvm.lifetime.start.p0(i64 8, ptr %3) #7
  %4 = load ptr, ptr %2, align 8, !tbaa !3
  store ptr %4, ptr %3, align 8, !tbaa !7
  %5 = load ptr, ptr %3, align 8, !tbaa !7
  %6 = icmp ne ptr %5, null
  br i1 %6, label %7, label %26

7:                                                ; preds = %1
  %8 = load ptr, ptr %3, align 8, !tbaa !7
  %9 = getelementptr inbounds nuw %struct.kmac_data_st, ptr %8, i32 0, i32 1
  %10 = load ptr, ptr %9, align 8, !tbaa !17
  call void @EVP_MD_CTX_free(ptr noundef %10)
  %11 = load ptr, ptr %3, align 8, !tbaa !7
  %12 = getelementptr inbounds nuw %struct.kmac_data_st, ptr %11, i32 0, i32 2
  call void @ossl_prov_digest_reset(ptr noundef %12)
  %13 = load ptr, ptr %3, align 8, !tbaa !7
  %14 = getelementptr inbounds nuw %struct.kmac_data_st, ptr %13, i32 0, i32 7
  %15 = getelementptr inbounds [672 x i8], ptr %14, i64 0, i64 0
  %16 = load ptr, ptr %3, align 8, !tbaa !7
  %17 = getelementptr inbounds nuw %struct.kmac_data_st, ptr %16, i32 0, i32 4
  %18 = load i64, ptr %17, align 8, !tbaa !19
  call void @OPENSSL_cleanse(ptr noundef %15, i64 noundef %18)
  %19 = load ptr, ptr %3, align 8, !tbaa !7
  %20 = getelementptr inbounds nuw %struct.kmac_data_st, ptr %19, i32 0, i32 8
  %21 = getelementptr inbounds [516 x i8], ptr %20, i64 0, i64 0
  %22 = load ptr, ptr %3, align 8, !tbaa !7
  %23 = getelementptr inbounds nuw %struct.kmac_data_st, ptr %22, i32 0, i32 5
  %24 = load i64, ptr %23, align 8, !tbaa !20
  call void @OPENSSL_cleanse(ptr noundef %21, i64 noundef %24)
  %25 = load ptr, ptr %3, align 8, !tbaa !7
  call void @CRYPTO_free(ptr noundef %25, ptr noundef @.str.2, i32 noundef 163)
  br label %26

26:                                               ; preds = %7, %1
  call void @llvm.lifetime.end.p0(i64 8, ptr %3) #7
  ret void
}

; Function Attrs: nounwind uwtable
define internal ptr @kmac_dup(ptr noundef %0) #0 {
  %2 = alloca ptr, align 8
  %3 = alloca ptr, align 8
  %4 = alloca ptr, align 8
  %5 = alloca ptr, align 8
  %6 = alloca i32, align 4
  store ptr %0, ptr %3, align 8, !tbaa !3
  call void @llvm.lifetime.start.p0(i64 8, ptr %4) #7
  %7 = load ptr, ptr %3, align 8, !tbaa !3
  store ptr %7, ptr %4, align 8, !tbaa !7
  call void @llvm.lifetime.start.p0(i64 8, ptr %5) #7
  %8 = call i32 @ossl_prov_is_running()
  %9 = icmp ne i32 %8, 0
  br i1 %9, label %11, label %10

10:                                               ; preds = %1
  store ptr null, ptr %2, align 8
  store i32 1, ptr %6, align 4
  br label %77

11:                                               ; preds = %1
  %12 = load ptr, ptr %4, align 8, !tbaa !7
  %13 = getelementptr inbounds nuw %struct.kmac_data_st, ptr %12, i32 0, i32 0
  %14 = load ptr, ptr %13, align 8, !tbaa !9
  %15 = call ptr @kmac_new(ptr noundef %14)
  store ptr %15, ptr %5, align 8, !tbaa !7
  %16 = load ptr, ptr %5, align 8, !tbaa !7
  %17 = icmp eq ptr %16, null
  br i1 %17, label %18, label %19

18:                                               ; preds = %11
  store ptr null, ptr %2, align 8
  store i32 1, ptr %6, align 4
  br label %77

19:                                               ; preds = %11
  %20 = load ptr, ptr %5, align 8, !tbaa !7
  %21 = getelementptr inbounds nuw %struct.kmac_data_st, ptr %20, i32 0, i32 1
  %22 = load ptr, ptr %21, align 8, !tbaa !17
  %23 = load ptr, ptr %4, align 8, !tbaa !7
  %24 = getelementptr inbounds nuw %struct.kmac_data_st, ptr %23, i32 0, i32 1
  %25 = load ptr, ptr %24, align 8, !tbaa !17
  %26 = call i32 @EVP_MD_CTX_copy(ptr noundef %22, ptr noundef %25)
  %27 = icmp ne i32 %26, 0
  br i1 %27, label %28, label %35

28:                                               ; preds = %19
  %29 = load ptr, ptr %5, align 8, !tbaa !7
  %30 = getelementptr inbounds nuw %struct.kmac_data_st, ptr %29, i32 0, i32 2
  %31 = load ptr, ptr %4, align 8, !tbaa !7
  %32 = getelementptr inbounds nuw %struct.kmac_data_st, ptr %31, i32 0, i32 2
  %33 = call i32 @ossl_prov_digest_copy(ptr noundef %30, ptr noundef %32)
  %34 = icmp ne i32 %33, 0
  br i1 %34, label %37, label %35

35:                                               ; preds = %28, %19
  %36 = load ptr, ptr %5, align 8, !tbaa !7
  call void @kmac_free(ptr noundef %36)
  store ptr null, ptr %2, align 8
  store i32 1, ptr %6, align 4
  br label %77

37:                                               ; preds = %28
  %38 = load ptr, ptr %4, align 8, !tbaa !7
  %39 = getelementptr inbounds nuw %struct.kmac_data_st, ptr %38, i32 0, i32 3
  %40 = load i64, ptr %39, align 8, !tbaa !18
  %41 = load ptr, ptr %5, align 8, !tbaa !7
  %42 = getelementptr inbounds nuw %struct.kmac_data_st, ptr %41, i32 0, i32 3
  store i64 %40, ptr %42, align 8, !tbaa !18
  %43 = load ptr, ptr %4, align 8, !tbaa !7
  %44 = getelementptr inbounds nuw %struct.kmac_data_st, ptr %43, i32 0, i32 4
  %45 = load i64, ptr %44, align 8, !tbaa !19
  %46 = load ptr, ptr %5, align 8, !tbaa !7
  %47 = getelementptr inbounds nuw %struct.kmac_data_st, ptr %46, i32 0, i32 4
  store i64 %45, ptr %47, align 8, !tbaa !19
  %48 = load ptr, ptr %4, align 8, !tbaa !7
  %49 = getelementptr inbounds nuw %struct.kmac_data_st, ptr %48, i32 0, i32 5
  %50 = load i64, ptr %49, align 8, !tbaa !20
  %51 = load ptr, ptr %5, align 8, !tbaa !7
  %52 = getelementptr inbounds nuw %struct.kmac_data_st, ptr %51, i32 0, i32 5
  store i64 %50, ptr %52, align 8, !tbaa !20
  %53 = load ptr, ptr %4, align 8, !tbaa !7
  %54 = getelementptr inbounds nuw %struct.kmac_data_st, ptr %53, i32 0, i32 6
  %55 = load i32, ptr %54, align 8, !tbaa !21
  %56 = load ptr, ptr %5, align 8, !tbaa !7
  %57 = getelementptr inbounds nuw %struct.kmac_data_st, ptr %56, i32 0, i32 6
  store i32 %55, ptr %57, align 8, !tbaa !21
  %58 = load ptr, ptr %5, align 8, !tbaa !7
  %59 = getelementptr inbounds nuw %struct.kmac_data_st, ptr %58, i32 0, i32 7
  %60 = getelementptr inbounds [672 x i8], ptr %59, i64 0, i64 0
  %61 = load ptr, ptr %4, align 8, !tbaa !7
  %62 = getelementptr inbounds nuw %struct.kmac_data_st, ptr %61, i32 0, i32 7
  %63 = getelementptr inbounds [672 x i8], ptr %62, i64 0, i64 0
  %64 = load ptr, ptr %4, align 8, !tbaa !7
  %65 = getelementptr inbounds nuw %struct.kmac_data_st, ptr %64, i32 0, i32 4
  %66 = load i64, ptr %65, align 8, !tbaa !19
  call void @llvm.memcpy.p0.p0.i64(ptr align 4 %60, ptr align 4 %63, i64 %66, i1 false)
  %67 = load ptr, ptr %5, align 8, !tbaa !7
  %68 = getelementptr inbounds nuw %struct.kmac_data_st, ptr %67, i32 0, i32 8
  %69 = getelementptr inbounds [516 x i8], ptr %68, i64 0, i64 0
  %70 = load ptr, ptr %4, align 8, !tbaa !7
  %71 = getelementptr inbounds nuw %struct.kmac_data_st, ptr %70, i32 0, i32 8
  %72 = getelementptr inbounds [516 x i8], ptr %71, i64 0, i64 0
  %73 = load ptr, ptr %5, align 8, !tbaa !7
  %74 = getelementptr inbounds nuw %struct.kmac_data_st, ptr %73, i32 0, i32 5
  %75 = load i64, ptr %74, align 8, !tbaa !20
  call void @llvm.memcpy.p0.p0.i64(ptr align 4 %69, ptr align 4 %72, i64 %75, i1 false)
  %76 = load ptr, ptr %5, align 8, !tbaa !7
  store ptr %76, ptr %2, align 8
  store i32 1, ptr %6, align 4
  br label %77

77:                                               ; preds = %37, %35, %18, %10
  call void @llvm.lifetime.end.p0(i64 8, ptr %5) #7
  call void @llvm.lifetime.end.p0(i64 8, ptr %4) #7
  %78 = load ptr, ptr %2, align 8
  ret ptr %78
}