; Function Attrs: nounwind uwtable
define internal ptr @kmac_dup(ptr noundef %0) #0 {
  %2 = tail call i32 @ossl_prov_is_running() #7
  %.not = icmp eq i32 %2, 0
  br i1 %.not, label %42, label %3

3:                                                ; preds = %1
  %4 = load ptr, ptr %0, align 8, !tbaa !3
  %5 = tail call fastcc ptr @kmac_new(ptr noundef %4)
  %6 = icmp eq ptr %5, null
  br i1 %6, label %42, label %7

7:                                                ; preds = %3
  %8 = getelementptr inbounds nuw i8, ptr %5, i64 8
  %9 = load ptr, ptr %8, align 8, !tbaa !14
  %10 = getelementptr inbounds nuw i8, ptr %0, i64 8
  %11 = load ptr, ptr %10, align 8, !tbaa !14
  %12 = tail call i32 @EVP_MD_CTX_copy(ptr noundef %9, ptr noundef %11) #7
  %.not25 = icmp eq i32 %12, 0
  br i1 %.not25, label %kmac_free.exit, label %13

13:                                               ; preds = %7
  %14 = getelementptr inbounds nuw i8, ptr %5, i64 16
  %15 = getelementptr inbounds nuw i8, ptr %0, i64 16
  %16 = tail call i32 @ossl_prov_digest_copy(ptr noundef nonnull %14, ptr noundef nonnull %15) #7
  %.not26 = icmp eq i32 %16, 0
  br i1 %.not26, label %kmac_free.exit, label %25

kmac_free.exit:                                   ; preds = %13, %7
  %17 = load ptr, ptr %8, align 8, !tbaa !14
  tail call void @EVP_MD_CTX_free(ptr noundef %17) #7
  %18 = getelementptr inbounds nuw i8, ptr %5, i64 16
  tail call void @ossl_prov_digest_reset(ptr noundef nonnull %18) #7
  %19 = getelementptr inbounds nuw i8, ptr %5, i64 68
  %20 = getelementptr inbounds nuw i8, ptr %5, i64 48
  %21 = load i64, ptr %20, align 8, !tbaa !15
  tail call void @OPENSSL_cleanse(ptr noundef nonnull %19, i64 noundef %21) #7
  %22 = getelementptr inbounds nuw i8, ptr %5, i64 740
  %23 = getelementptr inbounds nuw i8, ptr %5, i64 56
  %24 = load i64, ptr %23, align 8, !tbaa !16
  tail call void @OPENSSL_cleanse(ptr noundef nonnull %22, i64 noundef %24) #7
  tail call void @CRYPTO_free(ptr noundef nonnull %5, ptr noundef nonnull @.str.2, i32 noundef 163) #7
  br label %42

25:                                               ; preds = %13
  %26 = getelementptr inbounds nuw i8, ptr %0, i64 40
  %27 = load i64, ptr %26, align 8, !tbaa !17
  %28 = getelementptr inbounds nuw i8, ptr %5, i64 40
  store i64 %27, ptr %28, align 8, !tbaa !17
  %29 = getelementptr inbounds nuw i8, ptr %0, i64 48
  %30 = load i64, ptr %29, align 8, !tbaa !15
  %31 = getelementptr inbounds nuw i8, ptr %5, i64 48
  store i64 %30, ptr %31, align 8, !tbaa !15
  %32 = getelementptr inbounds nuw i8, ptr %0, i64 56
  %33 = load i64, ptr %32, align 8, !tbaa !16
  %34 = getelementptr inbounds nuw i8, ptr %5, i64 56
  store i64 %33, ptr %34, align 8, !tbaa !16
  %35 = getelementptr inbounds nuw i8, ptr %0, i64 64
  %36 = load i32, ptr %35, align 8, !tbaa !18
  %37 = getelementptr inbounds nuw i8, ptr %5, i64 64
  store i32 %36, ptr %37, align 8, !tbaa !18
  %38 = getelementptr inbounds nuw i8, ptr %5, i64 68
  %39 = getelementptr inbounds nuw i8, ptr %0, i64 68
  tail call void @llvm.memcpy.p0.p0.i64(ptr nonnull align 4 %38, ptr nonnull align 4 %39, i64 %30, i1 false)
  %40 = getelementptr inbounds nuw i8, ptr %5, i64 740
  %41 = getelementptr inbounds nuw i8, ptr %0, i64 740
  tail call void @llvm.memcpy.p0.p0.i64(ptr nonnull align 4 %40, ptr nonnull align 4 %41, i64 %33, i1 false)
  br label %42

42:                                               ; preds = %3, %1, %25, %kmac_free.exit
  %.0 = phi ptr [ %5, %25 ], [ null, %kmac_free.exit ], [ null, %1 ], [ null, %3 ]
  ret ptr %.0
}